target datalayout = "e-m:e-p270:32:32-p271:32:32-p272:64:64-i64:64-i128:128-f80:128-n8:16:32:64-S128"
target triple = "x86_64-pc-linux-gnu"

%struct.AVFormatContext = type { ptr, ptr, ptr, ptr, ptr, i32, i32, ptr, i32, ptr, i32, ptr, ptr, i64, i64, i64, i32, i32, i32, i64, i64, ptr, i32, i32, ptr, i32, i32, i32, i32, ptr, i64, i32, i32, %struct.AVIOInterruptCB, i32, i32, i32, i32, i64, i32, i32, i32, i32, i32, i32, i32, i32, i32, i32, i32, i32, i64, i32, i32, i32, i32, i32, ptr, ptr, ptr, ptr, i32, ptr, ptr, ptr, ptr, i32, ptr, ptr, i64, ptr, ptr, ptr, i64 }
%struct.AVIOInterruptCB = type { ptr, ptr }
%struct.AVRational = type { i32, i32 }
%struct.APNGMuxContext = type { ptr, i32, %struct.AVRational, i64, i32, ptr, %struct.AVRational, i32, ptr, i32 }

; Function Attrs: nounwind uwtable
define internal void @apng_deinit(ptr noundef %0) #0 {
  %2 = alloca ptr, align 8
  %3 = alloca ptr, align 8
  store ptr %0, ptr %2, align 8, !tbaa !4
  call void @llvm.lifetime.start.p0(i64 8, ptr %3) #8
  %4 = load ptr, ptr %2, align 8, !tbaa !4
  %5 = getelementptr inbounds nuw %struct.AVFormatContext, ptr %4, i32 0, i32 3
  %6 = load ptr, ptr %5, align 8, !tbaa !9
  store ptr %6, ptr %3, align 8, !tbaa !26
  %7 = load ptr, ptr %3, align 8, !tbaa !26
  %8 = getelementptr inbounds nuw %struct.APNGMuxContext, ptr %7, i32 0, i32 5
  call void @av_packet_free(ptr noundef %8)
  %9 = load ptr, ptr %3, align 8, !tbaa !26
  %10 = getelementptr inbounds nuw %struct.APNGMuxContext, ptr %9, i32 0, i32 8
  call void @av_freep(ptr noundef %10)
  %11 = load ptr, ptr %3, align 8, !tbaa !26
  %12 = getelementptr inbounds nuw %struct.APNGMuxContext, ptr %11, i32 0, i32 9
  store i32 0, ptr %12, align 8, !tbaa !48
  call void @llvm.lifetime.end.p0(i64 8, ptr %3) #8
  ret void
}